; Function Attrs: mustprogress nofree norecurse nosync nounwind willreturn memory(argmem: write) uwtable
define void @_ZN3re29Prefilter4InfoC2Ev(ptr noundef nonnull align 8 dereferenceable(64) %this) unnamed_addr #7 align 2 personality ptr @__gxx_personality_v0 {
entry:
  %0 = getelementptr inbounds i8, ptr %this, i64 8
  store i32 0, ptr %0, align 8
  %_M_parent.i.i.i.i.i = getelementptr inbounds i8, ptr %this, i64 16
  store ptr null, ptr %_M_parent.i.i.i.i.i, align 8
  %_M_left.i.i.i.i.i = getelementptr inbounds i8, ptr %this, i64 24
  store ptr %0, ptr %_M_left.i.i.i.i.i, align 8
  %_M_right.i.i.i.i.i = getelementptr inbounds i8, ptr %this, i64 32
  store ptr %0, ptr %_M_right.i.i.i.i.i, align 8
  %_M_node_count.i.i.i.i.i = getelementptr inbounds i8, ptr %this, i64 40
  store i64 0, ptr %_M_node_count.i.i.i.i.i, align 8
  %is_exact_ = getelementptr inbounds i8, ptr %this, i64 48
  store i8 0, ptr %is_exact_, align 8
  %match_ = getelementptr inbounds i8, ptr %this, i64 56
  store ptr null, ptr %match_, align 8
  ret void
}